; Function Attrs: nounwind uwtable
define hidden range(i32 0, 2) i32 @_cmsWriteUInt16Array(ptr noundef %0, i32 noundef %1, ptr nocapture noundef readonly %2) local_unnamed_addr #2 {
  %4 = alloca i16, align 2
  %.not = icmp eq i32 %1, 0
  br i1 %.not, label %._crit_edge, label %.lr.ph

.lr.ph:                                           ; preds = %3
  %5 = getelementptr inbounds i8, ptr %0, i64 312
  %wide.trip.count = zext i32 %1 to i64
  br label %7

6:                                                ; preds = %7
  %indvars.iv.next = add nuw nsw i64 %indvars.iv, 1
  %exitcond.not = icmp eq i64 %indvars.iv.next, %wide.trip.count
  br i1 %exitcond.not, label %._crit_edge, label %7, !llvm.loop !8

7:                                                ; preds = %.lr.ph, %6
  %indvars.iv = phi i64 [ 0, %.lr.ph ], [ %indvars.iv.next, %6 ]
  %8 = getelementptr inbounds i16, ptr %2, i64 %indvars.iv
  %9 = load i16, ptr %8, align 2
  call void @llvm.lifetime.start.p0(i64 2, ptr nonnull %4)
  %.sroa.0.0.insert.insert.i.i = call noundef i16 @llvm.bswap.i16(i16 %9)
  store i16 %.sroa.0.0.insert.insert.i.i, ptr %4, align 2
  %10 = load ptr, ptr %5, align 8
  %11 = call i32 %10(ptr noundef %0, i32 noundef 2, ptr noundef nonnull %4) #12
  %.not.i.not = icmp eq i32 %11, 1
  call void @llvm.lifetime.end.p0(i64 2, ptr nonnull %4)
  br i1 %.not.i.not, label %6, label %._crit_edge

._crit_edge:                                      ; preds = %7, %6, %3
  %.06 = phi i32 [ 1, %3 ], [ 1, %6 ], [ 0, %7 ]
  ret i32 %.06
}